; Function Attrs: mustprogress nofree nounwind willreturn memory(read, inaccessiblemem: none) uwtable
define internal noundef zeroext i1 @_ZN2cvL10cmp_paramsERKNS_23CommandLineParserParamsES2_(ptr noundef nonnull readonly align 8 captures(none) dereferenceable(92) %0, ptr noundef nonnull readonly align 8 captures(none) dereferenceable(92) %1) #14 {
  %3 = getelementptr inbounds nuw i8, ptr %0, i64 88
  %4 = load i32, ptr %3, align 8, !tbaa !70
  %5 = getelementptr inbounds nuw i8, ptr %1, i64 88
  %6 = load i32, ptr %5, align 8, !tbaa !70
  %7 = icmp slt i32 %4, %6
  br i1 %7, label %25, label %8

8:                                                ; preds = %2
  %9 = icmp sgt i32 %4, %6
  br i1 %9, label %25, label %10

10:                                               ; preds = %8
  %11 = getelementptr inbounds nuw i8, ptr %0, i64 64
  %12 = load ptr, ptr %11, align 8, !tbaa !21
  %13 = getelementptr inbounds nuw i8, ptr %1, i64 64
  %14 = load ptr, ptr %13, align 8, !tbaa !21
  %15 = getelementptr inbounds nuw i8, ptr %12, i64 8
  %16 = load i64, ptr %15, align 8, !tbaa !24
  %17 = getelementptr inbounds nuw i8, ptr %14, i64 8
  %18 = load i64, ptr %17, align 8, !tbaa !24
  %.sroa.speculated.i = tail call i64 @llvm.umin.i64(i64 %18, i64 %16)
  %19 = icmp eq i64 %.sroa.speculated.i, 0
  br i1 %19, label %_ZNSt11char_traitsIcE7compareEPKcS2_m.exit.thread.i, label %_ZNSt11char_traitsIcE7compareEPKcS2_m.exit.i

_ZNSt11char_traitsIcE7compareEPKcS2_m.exit.i:     ; preds = %10
  %20 = load ptr, ptr %14, align 8, !tbaa !13
  %21 = load ptr, ptr %12, align 8, !tbaa !13
  %22 = tail call i32 @memcmp(ptr noundef %21, ptr noundef %20, i64 noundef %.sroa.speculated.i) #29
  %.not.i = icmp eq i32 %22, 0
  br i1 %.not.i, label %_ZNSt11char_traitsIcE7compareEPKcS2_m.exit.thread.i, label %_ZNKSt7__cxx1112basic_stringIcSt11char_traitsIcESaIcEE7compareERKS4_.exit

_ZNSt11char_traitsIcE7compareEPKcS2_m.exit.thread.i: ; preds = %_ZNSt11char_traitsIcE7compareEPKcS2_m.exit.i, %10
  %23 = sub i64 %16, %18
  %spec.select7.i.i = tail call i64 @llvm.smax.i64(i64 %23, i64 -2147483648)
  %.08.i.i = tail call i64 @llvm.smin.i64(i64 %spec.select7.i.i, i64 2147483647)
  %.0.i6.i = trunc nsw i64 %.08.i.i to i32
  br label %_ZNKSt7__cxx1112basic_stringIcSt11char_traitsIcESaIcEE7compareERKS4_.exit

_ZNKSt7__cxx1112basic_stringIcSt11char_traitsIcESaIcEE7compareERKS4_.exit: ; preds = %_ZNSt11char_traitsIcE7compareEPKcS2_m.exit.i, %_ZNSt11char_traitsIcE7compareEPKcS2_m.exit.thread.i
  %.0.i = phi i32 [ %22, %_ZNSt11char_traitsIcE7compareEPKcS2_m.exit.i ], [ %.0.i6.i, %_ZNSt11char_traitsIcE7compareEPKcS2_m.exit.thread.i ]
  %24 = icmp slt i32 %.0.i, 0
  br label %25

25:                                               ; preds = %8, %2, %_ZNKSt7__cxx1112basic_stringIcSt11char_traitsIcESaIcEE7compareERKS4_.exit
  %.0 = phi i1 [ %24, %_ZNKSt7__cxx1112basic_stringIcSt11char_traitsIcESaIcEE7compareERKS4_.exit ], [ true, %2 ], [ false, %8 ]
  ret i1 %.0
}